; Function Attrs: nounwind uwtable
define dso_local ptr @lua_setlocal(ptr noundef captures(none) %0, ptr noundef readonly captures(none) %1, i32 noundef %2) local_unnamed_addr #6 {
  %4 = getelementptr inbounds nuw i8, ptr %1, i64 136
  %5 = load ptr, ptr %4, align 8, !tbaa !43
  %6 = load ptr, ptr %5, align 8, !tbaa !24
  %7 = getelementptr inbounds nuw i8, ptr %6, i64 16
  %8 = getelementptr inbounds nuw i8, ptr %5, i64 60
  %9 = load i32, ptr %8, align 4, !tbaa !40
  %10 = and i32 %9, 32768
  %.not.i = icmp eq i32 %10, 0
  br i1 %.not.i, label %11, label %.thread.i

11:                                               ; preds = %3
  %12 = icmp slt i32 %2, 0
  %13 = load ptr, ptr %6, align 8, !tbaa !24
  %14 = getelementptr inbounds nuw i8, ptr %13, i64 24
  %15 = load ptr, ptr %14, align 8, !tbaa !45
  br i1 %12, label %16, label %30

16:                                               ; preds = %11
  %17 = getelementptr inbounds nuw i8, ptr %15, i64 11
  %18 = load i8, ptr %17, align 1, !tbaa !48
  %19 = and i8 %18, 1
  %.not.i.i = icmp eq i8 %19, 0
  br i1 %.not.i.i, label %luaG_findlocal.exit.thread, label %20

20:                                               ; preds = %16
  %21 = getelementptr inbounds nuw i8, ptr %5, i64 44
  %22 = load i32, ptr %21, align 4, !tbaa !24
  %23 = sub nsw i32 0, %22
  %.not11.not.i.i = icmp slt i32 %2, %23
  br i1 %.not11.not.i.i, label %luaG_findlocal.exit.thread, label %24

24:                                               ; preds = %20
  %25 = sext i32 %22 to i64
  %26 = sub nsw i64 0, %25
  %27 = getelementptr inbounds %union.StackValue, ptr %6, i64 %26
  %narrow.i.i = xor i32 %2, -1
  %28 = zext nneg i32 %narrow.i.i to i64
  %29 = getelementptr inbounds nuw %union.StackValue, ptr %27, i64 %28
  br label %luaG_findlocal.exit

30:                                               ; preds = %11
  %31 = getelementptr i8, ptr %5, i64 32
  %.val34.i = load ptr, ptr %31, align 8, !tbaa !24
  %32 = getelementptr i8, ptr %15, i64 64
  %.val.val.val.val.i = load ptr, ptr %32, align 8, !tbaa !49
  %33 = ptrtoint ptr %.val34.i to i64
  %34 = ptrtoint ptr %.val.val.val.val.i to i64
  %35 = sub i64 %33, %34
  %36 = lshr exact i64 %35, 2
  %37 = trunc i64 %36 to i32
  %38 = add nsw i32 %37, -1
  %39 = tail call ptr @luaF_getlocalname(ptr noundef %15, i32 noundef %2, i32 noundef %38) #13
  %40 = icmp eq ptr %39, null
  br i1 %40, label %.thread.i, label %61

.thread.i:                                        ; preds = %30, %3
  %41 = getelementptr inbounds nuw i8, ptr %0, i64 32
  %42 = load ptr, ptr %41, align 8, !tbaa !39
  %43 = icmp eq ptr %5, %42
  br i1 %43, label %44, label %46

44:                                               ; preds = %.thread.i
  %45 = getelementptr inbounds nuw i8, ptr %0, i64 16
  br label %49

46:                                               ; preds = %.thread.i
  %47 = getelementptr inbounds nuw i8, ptr %5, i64 24
  %48 = load ptr, ptr %47, align 8, !tbaa !50
  br label %49

49:                                               ; preds = %46, %44
  %.in.i = phi ptr [ %45, %44 ], [ %48, %46 ]
  %50 = load ptr, ptr %.in.i, align 8, !tbaa !24
  %51 = ptrtoint ptr %50 to i64
  %52 = ptrtoint ptr %7 to i64
  %53 = sub i64 %51, %52
  %54 = ashr exact i64 %53, 4
  %55 = sext i32 %2 to i64
  %56 = icmp sge i64 %54, %55
  %57 = icmp sgt i32 %2, 0
  %or.cond.i = and i1 %57, %56
  br i1 %or.cond.i, label %.thread36.i, label %luaG_findlocal.exit.thread

.thread36.i:                                      ; preds = %49
  %58 = load i32, ptr %8, align 4, !tbaa !40
  %59 = and i32 %58, 32768
  %.not32.i = icmp eq i32 %59, 0
  %60 = select i1 %.not32.i, ptr @.str, ptr @.str.1
  br label %61

61:                                               ; preds = %.thread36.i, %30
  %.128.i = phi ptr [ %39, %30 ], [ %60, %.thread36.i ]
  %62 = zext nneg i32 %2 to i64
  %63 = getelementptr %union.StackValue, ptr %7, i64 %62
  %64 = getelementptr i8, ptr %63, i64 -16
  br label %luaG_findlocal.exit

luaG_findlocal.exit:                              ; preds = %61, %24
  %.0 = phi ptr [ %29, %24 ], [ %64, %61 ]
  %.0.i = phi ptr [ @.str.9, %24 ], [ %.128.i, %61 ]
  %65 = getelementptr inbounds nuw i8, ptr %0, i64 16
  %66 = load ptr, ptr %65, align 8, !tbaa !24
  %67 = getelementptr inbounds i8, ptr %66, i64 -16
  %68 = load i64, ptr %67, align 8, !tbaa !24
  store i64 %68, ptr %.0, align 8, !tbaa !24
  %69 = getelementptr inbounds i8, ptr %66, i64 -8
  %70 = load i8, ptr %69, align 8, !tbaa !53
  %71 = getelementptr inbounds nuw i8, ptr %.0, i64 8
  store i8 %70, ptr %71, align 8, !tbaa !53
  %72 = load ptr, ptr %65, align 8, !tbaa !24
  %73 = getelementptr inbounds i8, ptr %72, i64 -16
  store ptr %73, ptr %65, align 8, !tbaa !24
  br label %luaG_findlocal.exit.thread

luaG_findlocal.exit.thread:                       ; preds = %49, %20, %16, %luaG_findlocal.exit
  %.0.i13 = phi ptr [ %.0.i, %luaG_findlocal.exit ], [ null, %16 ], [ null, %20 ], [ null, %49 ]
  ret ptr %.0.i13
}